; ModuleID = 'source-C-CXX/56/1424.c'
source_filename = "source-C-CXX/56/1424.c"
target datalayout = "e-m:e-p270:32:32-p271:32:32-p272:64:64-i64:64-f80:128-n8:16:32:64-S128"
target triple = "x86_64-pc-linux-gnu"

@.str = private unnamed_addr constant [4 x i8] c"%d\0A\00", align 1
@.str.2 = private unnamed_addr constant [4 x i8] c"%c\0A\00", align 1

; Function Attrs: nounwind sspstrong uwtable
define dso_local void @main() local_unnamed_addr #0 {
  %1 = alloca i32, align 4
  %2 = alloca [101 x i32], align 16
  %3 = alloca [101 x [101 x i8]], align 16
  %4 = bitcast i32* %1 to i8*
  call void @llvm.lifetime.start.p0i8(i64 4, i8* nonnull %4) #6
  %5 = bitcast [101 x i32]* %2 to i8*
  call void @llvm.lifetime.start.p0i8(i64 404, i8* nonnull %5) #6
  %6 = getelementptr inbounds [101 x [101 x i8]], [101 x [101 x i8]]* %3, i64 0, i64 0, i64 0
  call void @llvm.lifetime.start.p0i8(i64 10201, i8* nonnull %6) #6
  %7 = call i32 (i8*, ...) @__isoc99_scanf(i8* getelementptr inbounds ([4 x i8], [4 x i8]* @.str, i64 0, i64 0), i32* nonnull %1)
  %8 = load i32, i32* %1, align 4, !tbaa !5
  %9 = icmp sgt i32 %8, 0
  br i1 %9, label %12, label %118

10:                                               ; preds = %12
  %11 = icmp sgt i32 %20, 0
  br i1 %11, label %23, label %118

12:                                               ; preds = %0, %12
  %13 = phi i64 [ %19, %12 ], [ 0, %0 ]
  %14 = getelementptr inbounds [101 x [101 x i8]], [101 x [101 x i8]]* %3, i64 0, i64 %13, i64 0
  %15 = call i32 (i8*, ...) bitcast (i32 (...)* @gets to i32 (i8*, ...)*)(i8* nonnull %14) #6
  %16 = call i64 @strlen(i8* noundef nonnull %14) #7
  %17 = trunc i64 %16 to i32
  %18 = getelementptr inbounds [101 x i32], [101 x i32]* %2, i64 0, i64 %13
  store i32 %17, i32* %18, align 4, !tbaa !5
  %19 = add nuw nsw i64 %13, 1
  %20 = load i32, i32* %1, align 4, !tbaa !5
  %21 = sext i32 %20 to i64
  %22 = icmp slt i64 %19, %21
  br i1 %22, label %12, label %10, !llvm.loop !9

23:                                               ; preds = %10, %113
  %24 = phi i64 [ %114, %113 ], [ 0, %10 ]
  %25 = getelementptr inbounds [101 x i32], [101 x i32]* %2, i64 0, i64 %24
  %26 = load i32, i32* %25, align 4, !tbaa !5
  %27 = add i32 %26, -3
  %28 = add nsw i32 %26, -2
  %29 = add nsw i32 %26, -1
  %30 = sext i32 %27 to i64
  %31 = getelementptr inbounds [101 x [101 x i8]], [101 x [101 x i8]]* %3, i64 0, i64 %24, i64 %30
  %32 = load i8, i8* %31, align 1, !tbaa !11
  %33 = icmp eq i8 %32, 105
  %34 = sext i32 %28 to i64
  br i1 %33, label %35, label %63

35:                                               ; preds = %23
  %36 = getelementptr inbounds [101 x [101 x i8]], [101 x [101 x i8]]* %3, i64 0, i64 %24, i64 %34
  %37 = load i8, i8* %36, align 1, !tbaa !11
  %38 = icmp eq i8 %37, 110
  br i1 %38, label %39, label %63

39:                                               ; preds = %35
  %40 = sext i32 %29 to i64
  %41 = getelementptr inbounds [101 x [101 x i8]], [101 x [101 x i8]]* %3, i64 0, i64 %24, i64 %40
  %42 = load i8, i8* %41, align 1, !tbaa !11
  %43 = icmp eq i8 %42, 103
  br i1 %43, label %44, label %63

44:                                               ; preds = %39
  %45 = icmp slt i32 %26, 5
  %46 = add nsw i32 %26, -4
  br i1 %45, label %57, label %47

47:                                               ; preds = %44
  %48 = zext i32 %46 to i64
  br label %49

49:                                               ; preds = %47, %49
  %50 = phi i64 [ 0, %47 ], [ %55, %49 ]
  %51 = getelementptr inbounds [101 x [101 x i8]], [101 x [101 x i8]]* %3, i64 0, i64 %24, i64 %50
  %52 = load i8, i8* %51, align 1, !tbaa !11
  %53 = sext i8 %52 to i32
  %54 = call i32 @putchar(i32 %53)
  %55 = add nuw nsw i64 %50, 1
  %56 = icmp eq i64 %55, %48
  br i1 %56, label %57, label %49, !llvm.loop !12

57:                                               ; preds = %49, %44
  %58 = sext i32 %46 to i64
  %59 = getelementptr inbounds [101 x [101 x i8]], [101 x [101 x i8]]* %3, i64 0, i64 %24, i64 %58
  %60 = load i8, i8* %59, align 1, !tbaa !11
  %61 = sext i8 %60 to i32
  %62 = call i32 (i8*, ...) @printf(i8* nonnull dereferenceable(1) getelementptr inbounds ([4 x i8], [4 x i8]* @.str.2, i64 0, i64 0), i32 %61)
  br label %63

63:                                               ; preds = %23, %57, %39, %35
  %64 = getelementptr inbounds [101 x [101 x i8]], [101 x [101 x i8]]* %3, i64 0, i64 %24, i64 %34
  %65 = load i8, i8* %64, align 1, !tbaa !11
  %66 = icmp eq i8 %65, 101
  br i1 %66, label %67, label %89

67:                                               ; preds = %63
  %68 = sext i32 %29 to i64
  %69 = getelementptr inbounds [101 x [101 x i8]], [101 x [101 x i8]]* %3, i64 0, i64 %24, i64 %68
  %70 = load i8, i8* %69, align 1, !tbaa !11
  %71 = icmp eq i8 %70, 114
  br i1 %71, label %72, label %113

72:                                               ; preds = %67
  %73 = icmp slt i32 %26, 4
  br i1 %73, label %84, label %74

74:                                               ; preds = %72
  %75 = zext i32 %27 to i64
  br label %76

76:                                               ; preds = %74, %76
  %77 = phi i64 [ 0, %74 ], [ %82, %76 ]
  %78 = getelementptr inbounds [101 x [101 x i8]], [101 x [101 x i8]]* %3, i64 0, i64 %24, i64 %77
  %79 = load i8, i8* %78, align 1, !tbaa !11
  %80 = sext i8 %79 to i32
  %81 = call i32 @putchar(i32 %80)
  %82 = add nuw nsw i64 %77, 1
  %83 = icmp eq i64 %82, %75
  br i1 %83, label %84, label %76, !llvm.loop !13

84:                                               ; preds = %76, %72
  %85 = load i8, i8* %31, align 1, !tbaa !11
  %86 = sext i8 %85 to i32
  %87 = call i32 (i8*, ...) @printf(i8* nonnull dereferenceable(1) getelementptr inbounds ([4 x i8], [4 x i8]* @.str.2, i64 0, i64 0), i32 %86)
  %88 = load i8, i8* %64, align 1, !tbaa !11
  br label %89

89:                                               ; preds = %84, %63
  %90 = phi i8 [ %65, %63 ], [ %88, %84 ]
  %91 = icmp eq i8 %90, 108
  br i1 %91, label %92, label %113

92:                                               ; preds = %89
  %93 = sext i32 %29 to i64
  %94 = getelementptr inbounds [101 x [101 x i8]], [101 x [101 x i8]]* %3, i64 0, i64 %24, i64 %93
  %95 = load i8, i8* %94, align 1, !tbaa !11
  %96 = icmp eq i8 %95, 121
  br i1 %96, label %97, label %113

97:                                               ; preds = %92
  %98 = icmp slt i32 %26, 4
  br i1 %98, label %109, label %99

99:                                               ; preds = %97
  %100 = zext i32 %27 to i64
  br label %101

101:                                              ; preds = %99, %101
  %102 = phi i64 [ 0, %99 ], [ %107, %101 ]
  %103 = getelementptr inbounds [101 x [101 x i8]], [101 x [101 x i8]]* %3, i64 0, i64 %24, i64 %102
  %104 = load i8, i8* %103, align 1, !tbaa !11
  %105 = sext i8 %104 to i32
  %106 = call i32 @putchar(i32 %105)
  %107 = add nuw nsw i64 %102, 1
  %108 = icmp eq i64 %107, %100
  br i1 %108, label %109, label %101, !llvm.loop !14

109:                                              ; preds = %101, %97
  %110 = load i8, i8* %31, align 1, !tbaa !11
  %111 = sext i8 %110 to i32
  %112 = call i32 (i8*, ...) @printf(i8* nonnull dereferenceable(1) getelementptr inbounds ([4 x i8], [4 x i8]* @.str.2, i64 0, i64 0), i32 %111)
  br label %113

113:                                              ; preds = %67, %89, %92, %109
  %114 = add nuw nsw i64 %24, 1
  %115 = load i32, i32* %1, align 4, !tbaa !5
  %116 = sext i32 %115 to i64
  %117 = icmp slt i64 %114, %116
  br i1 %117, label %23, label %118, !llvm.loop !15

118:                                              ; preds = %113, %0, %10
  call void @llvm.lifetime.end.p0i8(i64 10201, i8* nonnull %6) #6
  call void @llvm.lifetime.end.p0i8(i64 404, i8* nonnull %5) #6
  call void @llvm.lifetime.end.p0i8(i64 4, i8* nonnull %4) #6
  ret void
}

; Function Attrs: argmemonly mustprogress nofree nosync nounwind willreturn
declare void @llvm.lifetime.start.p0i8(i64 immarg, i8* nocapture) #1

; Function Attrs: nofree nounwind
declare noundef i32 @__isoc99_scanf(i8* nocapture noundef readonly, ...) local_unnamed_addr #2

declare i32 @gets(...) local_unnamed_addr #3

; Function Attrs: argmemonly mustprogress nofree nounwind readonly willreturn
declare i64 @strlen(i8* nocapture) local_unnamed_addr #4

; Function Attrs: nofree nounwind
declare noundef i32 @printf(i8* nocapture noundef readonly, ...) local_unnamed_addr #2

; Function Attrs: argmemonly mustprogress nofree nosync nounwind willreturn
declare void @llvm.lifetime.end.p0i8(i64 immarg, i8* nocapture) #1

; Function Attrs: nofree nounwind
declare noundef i32 @putchar(i32 noundef) local_unnamed_addr #5


!llvm.module.flags = !{!0, !1, !2, !3}
!llvm.ident = !{!4}

!0 = !{i32 1, !"wchar_size", i32 4}
!1 = !{i32 7, !"PIC Level", i32 2}
!2 = !{i32 7, !"PIE Level", i32 2}
!3 = !{i32 7, !"uwtable", i32 1}
!4 = !{!"clang version 13.0.0"}
!5 = !{!6, !6, i64 0}
!6 = !{!"int", !7, i64 0}
!7 = !{!"omnipotent char", !8, i64 0}
!8 = !{!"Simple C/C++ TBAA"}
!9 = distinct !{!9, !10}
!10 = !{!"llvm.loop.mustprogress"}
!11 = !{!7, !7, i64 0}
!12 = distinct !{!12, !10}
!13 = distinct !{!13, !10}
!14 = distinct !{!14, !10}
!15 = distinct !{!15, !10}
